(lp0
(lp1
(lp2
I1
aI3
aI-1
aI0
aa(lp3
I3
aI10
aI-1
aI0
aa(lp4
I4
aI16
aI-1
aI0
aaa(lp5
(lp6
I0
aI3
aI-1
aI1
aa(lp7
I2
aI2
aI-1
aI1
aa(lp8
I3
aI7
aI-1
aI1
aaa(lp9
(lp10
I1
aI2
aI-1
aI2
aa(lp11
I4
aI2
aI-1
aI2
aaa(lp12
(lp13
I0
aI10
aI-1
aI3
aa(lp14
I1
aI7
aI-1
aI3
aa(lp15
I4
aI2
aI-1
aI3
aaa(lp16
(lp17
I0
aI16
aI-1
aI4
aa(lp18
I2
aI2
aI-1
aI4
aa(lp19
I3
aI2
aI-1
aI4
aaa.